; Function Attrs: nounwind uwtable
define i32 @llhttp__on_method_complete(ptr noundef %0, ptr noundef readnone captures(none) %1, ptr noundef readnone captures(none) %2) local_unnamed_addr #0 {
  %4 = getelementptr inbounds nuw i8, ptr %0, i64 88
  %5 = load ptr, ptr %4, align 8, !tbaa !12
  %6 = icmp eq ptr %5, null
  br i1 %6, label %13, label %7

7:                                                ; preds = %3
  %8 = getelementptr inbounds nuw i8, ptr %5, i64 112
  %9 = load ptr, ptr %8, align 8, !tbaa !32
  %10 = icmp eq ptr %9, null
  br i1 %10, label %13, label %11

11:                                               ; preds = %7
  %12 = tail call i32 %9(ptr noundef nonnull %0) #10
  br label %13

13:                                               ; preds = %3, %7, %11
  %.0 = phi i32 [ %12, %11 ], [ 0, %7 ], [ 0, %3 ]
  ret i32 %.0
}